target datalayout = "e-m:e-p270:32:32-p271:32:32-p272:64:64-i64:64-i128:128-f80:128-n8:16:32:64-S128"
target triple = "x86_64-pc-linux-gnu"

; Function Attrs: nounwind uwtable
define dso_local i64 @curl_getdate(ptr noundef %0, ptr noundef %1) #0 {
  %3 = alloca i64, align 8
  %4 = alloca ptr, align 8
  %5 = alloca ptr, align 8
  %6 = alloca i64, align 8
  %7 = alloca i32, align 4
  store ptr %0, ptr %4, align 8
  store ptr %1, ptr %5, align 8
  store i64 -1, ptr %6, align 8
  %8 = load ptr, ptr %4, align 8
  %9 = call i32 @parsedate(ptr noundef %8, ptr noundef %6)
  store i32 %9, ptr %7, align 4
  %10 = load i32, ptr %7, align 4
  %11 = icmp eq i32 %10, 0
  br i1 %11, label %12, label %20

12:                                               ; preds = %2
  %13 = load i64, ptr %6, align 8
  %14 = icmp eq i64 %13, -1
  br i1 %14, label %15, label %18

15:                                               ; preds = %12
  %16 = load i64, ptr %6, align 8
  %17 = add nsw i64 %16, 1
  store i64 %17, ptr %6, align 8
  br label %18

18:                                               ; preds = %15, %12
  %19 = load i64, ptr %6, align 8
  store i64 %19, ptr %3, align 8
  br label %21

20:                                               ; preds = %2
  store i64 -1, ptr %3, align 8
  br label %21

21:                                               ; preds = %20, %18
  %22 = load i64, ptr %3, align 8
  ret i64 %22
}