; Function Attrs: nounwind uwtable
define dso_local i64 @curl_getdate(ptr noundef %0, ptr noundef readnone captures(none) %1) local_unnamed_addr #0 {
  %3 = alloca i64, align 8
  store i64 -1, ptr %3, align 8
  %4 = call fastcc i32 @parsedate(ptr noundef %0, ptr noundef %3)
  %5 = icmp eq i32 %4, 0
  %6 = load i64, ptr %3, align 8
  %7 = icmp eq i64 %6, -1
  %spec.store.select = select i1 %7, i64 0, i64 %6
  %.0 = select i1 %5, i64 %spec.store.select, i64 -1
  ret i64 %.0
}